target datalayout = "e-m:e-p270:32:32-p271:32:32-p272:64:64-i64:64-i128:128-f80:128-n8:16:32:64-S128"
target triple = "x86_64-pc-linux-gnu"

%"class.cv::Mat" = type { i32, i32, i32, i32, ptr, ptr, ptr, ptr, ptr, ptr, %"struct.cv::MatSize", %"struct.cv::MatStep" }
%"struct.cv::MatSize" = type { ptr }
%"struct.cv::MatStep" = type { ptr, [2 x i64] }
%"class.cv::Vec" = type { %"class.cv::Matx" }
%"class.cv::Matx" = type { [3 x float] }

; Function Attrs: mustprogress nounwind uwtable
define linkonce_odr hidden void @_ZN2cv4MatxIfLi3ELi1EEC2Ev(ptr noundef nonnull align 4 dereferenceable(12) %0) unnamed_addr #1 comdat align 2 {
  %2 = alloca ptr, align 8
  %3 = alloca i32, align 4
  store ptr %0, ptr %2, align 8
  %4 = load ptr, ptr %2, align 8
  store i32 0, ptr %3, align 4
  br label %5

5:                                                ; preds = %13, %1
  %6 = load i32, ptr %3, align 4
  %7 = icmp slt i32 %6, 3
  br i1 %7, label %8, label %16

8:                                                ; preds = %5
  %9 = getelementptr inbounds %"class.cv::Matx", ptr %4, i32 0, i32 0
  %10 = load i32, ptr %3, align 4
  %11 = sext i32 %10 to i64
  %12 = getelementptr inbounds [3 x float], ptr %9, i64 0, i64 %11
  store float 0.000000e+00, ptr %12, align 4
  br label %13

13:                                               ; preds = %8
  %14 = load i32, ptr %3, align 4
  %15 = add nsw i32 %14, 1
  store i32 %15, ptr %3, align 4
  br label %5, !llvm.loop !11

16:                                               ; preds = %5
  ret void
}

; Function Attrs: mustprogress nounwind uwtable
define linkonce_odr hidden noundef zeroext i1 @_ZNK2cv3Mat12isContinuousEv(ptr noundef nonnull align 8 dereferenceable(96) %0) #1 comdat align 2 {
  %2 = alloca ptr, align 8
  store ptr %0, ptr %2, align 8
  %3 = load ptr, ptr %2, align 8
  %4 = getelementptr inbounds %"class.cv::Mat", ptr %3, i32 0, i32 0
  %5 = load i32, ptr %4, align 8
  %6 = and i32 %5, 16384
  %7 = icmp ne i32 %6, 0
  ret i1 %7
}

; Function Attrs: mustprogress uwtable
define linkonce_odr hidden void @_ZN2cv3VecIfLi3EEC2Ev(ptr noundef nonnull align 4 dereferenceable(12) %0) unnamed_addr #0 comdat align 2 {
  %2 = alloca ptr, align 8
  store ptr %0, ptr %2, align 8
  %3 = load ptr, ptr %2, align 8
  call void @_ZN2cv4MatxIfLi3ELi1EEC2Ev(ptr noundef nonnull align 4 dereferenceable(12) %3)
  ret void
}

; Function Attrs: mustprogress nounwind uwtable
define linkonce_odr hidden noundef nonnull align 4 dereferenceable(12) ptr @_ZN2cv3Mat2atINS_3VecIfLi3EEEEERT_i(ptr noundef nonnull align 8 dereferenceable(96) %0, i32 noundef %1) #1 comdat align 2 {
  %3 = alloca ptr, align 8
  %4 = alloca ptr, align 8
  %5 = alloca i32, align 4
  %6 = alloca i32, align 4
  %7 = alloca i32, align 4
  store ptr %0, ptr %4, align 8
  store i32 %1, ptr %5, align 4
  %8 = load ptr, ptr %4, align 8
  %9 = call noundef zeroext i1 @_ZNK2cv3Mat12isContinuousEv(ptr noundef nonnull align 8 dereferenceable(96) %8)
  br i1 %9, label %17, label %10

10:                                               ; preds = %2
  %11 = getelementptr inbounds %"class.cv::Mat", ptr %8, i32 0, i32 10
  %12 = getelementptr inbounds %"struct.cv::MatSize", ptr %11, i32 0, i32 0
  %13 = load ptr, ptr %12, align 8
  %14 = getelementptr inbounds i32, ptr %13, i64 0
  %15 = load i32, ptr %14, align 4
  %16 = icmp eq i32 %15, 1
  br i1 %16, label %17, label %23

17:                                               ; preds = %10, %2
  %18 = getelementptr inbounds %"class.cv::Mat", ptr %8, i32 0, i32 4
  %19 = load ptr, ptr %18, align 8
  %20 = load i32, ptr %5, align 4
  %21 = sext i32 %20 to i64
  %22 = getelementptr inbounds %"class.cv::Vec", ptr %19, i64 %21
  store ptr %22, ptr %3, align 8
  br label %67

23:                                               ; preds = %10
  %24 = getelementptr inbounds %"class.cv::Mat", ptr %8, i32 0, i32 10
  %25 = getelementptr inbounds %"struct.cv::MatSize", ptr %24, i32 0, i32 0
  %26 = load ptr, ptr %25, align 8
  %27 = getelementptr inbounds i32, ptr %26, i64 1
  %28 = load i32, ptr %27, align 4
  %29 = icmp eq i32 %28, 1
  br i1 %29, label %30, label %42

30:                                               ; preds = %23
  %31 = getelementptr inbounds %"class.cv::Mat", ptr %8, i32 0, i32 4
  %32 = load ptr, ptr %31, align 8
  %33 = getelementptr inbounds %"class.cv::Mat", ptr %8, i32 0, i32 11
  %34 = getelementptr inbounds %"struct.cv::MatStep", ptr %33, i32 0, i32 0
  %35 = load ptr, ptr %34, align 8
  %36 = getelementptr inbounds i64, ptr %35, i64 0
  %37 = load i64, ptr %36, align 8
  %38 = load i32, ptr %5, align 4
  %39 = sext i32 %38 to i64
  %40 = mul i64 %37, %39
  %41 = getelementptr inbounds i8, ptr %32, i64 %40
  store ptr %41, ptr %3, align 8
  br label %67

42:                                               ; preds = %23
  %43 = load i32, ptr %5, align 4
  %44 = getelementptr inbounds %"class.cv::Mat", ptr %8, i32 0, i32 3
  %45 = load i32, ptr %44, align 4
  %46 = sdiv i32 %43, %45
  store i32 %46, ptr %6, align 4
  %47 = load i32, ptr %5, align 4
  %48 = load i32, ptr %6, align 4
  %49 = getelementptr inbounds %"class.cv::Mat", ptr %8, i32 0, i32 3
  %50 = load i32, ptr %49, align 4
  %51 = mul nsw i32 %48, %50
  %52 = sub nsw i32 %47, %51
  store i32 %52, ptr %7, align 4
  %53 = getelementptr inbounds %"class.cv::Mat", ptr %8, i32 0, i32 4
  %54 = load ptr, ptr %53, align 8
  %55 = getelementptr inbounds %"class.cv::Mat", ptr %8, i32 0, i32 11
  %56 = getelementptr inbounds %"struct.cv::MatStep", ptr %55, i32 0, i32 0
  %57 = load ptr, ptr %56, align 8
  %58 = getelementptr inbounds i64, ptr %57, i64 0
  %59 = load i64, ptr %58, align 8
  %60 = load i32, ptr %6, align 4
  %61 = sext i32 %60 to i64
  %62 = mul i64 %59, %61
  %63 = getelementptr inbounds i8, ptr %54, i64 %62
  %64 = load i32, ptr %7, align 4
  %65 = sext i32 %64 to i64
  %66 = getelementptr inbounds %"class.cv::Vec", ptr %63, i64 %65
  store ptr %66, ptr %3, align 8
  br label %67

67:                                               ; preds = %42, %30, %17
  %68 = load ptr, ptr %3, align 8
  ret ptr %68
}

; Function Attrs: mustprogress uwtable
define linkonce_odr hidden void @_ZN2cv3VecIfLi3EE3allEf(ptr dead_on_unwind noalias writable sret(%"class.cv::Vec") align 4 %0, float noundef %1) #0 comdat align 2 {
  %3 = alloca ptr, align 8
  %4 = alloca float, align 4
  %5 = alloca i32, align 4
  store ptr %0, ptr %3, align 8
  store float %1, ptr %4, align 4
  call void @_ZN2cv3VecIfLi3EEC2Ev(ptr noundef nonnull align 4 dereferenceable(12) %0)
  store i32 0, ptr %5, align 4
  br label %6

6:                                                ; preds = %15, %2
  %7 = load i32, ptr %5, align 4
  %8 = icmp slt i32 %7, 3
  br i1 %8, label %9, label %18

9:                                                ; preds = %6
  %10 = load float, ptr %4, align 4
  %11 = getelementptr inbounds %"class.cv::Matx", ptr %0, i32 0, i32 0
  %12 = load i32, ptr %5, align 4
  %13 = sext i32 %12 to i64
  %14 = getelementptr inbounds [3 x float], ptr %11, i64 0, i64 %13
  store float %10, ptr %14, align 4
  br label %15

15:                                               ; preds = %9
  %16 = load i32, ptr %5, align 4
  %17 = add nsw i32 %16, 1
  store i32 %17, ptr %5, align 4
  br label %6, !llvm.loop !8

18:                                               ; preds = %6
  ret void
}

; Function Attrs: mustprogress nounwind uwtable
define linkonce_odr noundef float @_ZSt3expf(float noundef %0) #1 comdat {
  %2 = alloca float, align 4
  store float %0, ptr %2, align 4
  %3 = load float, ptr %2, align 4
  %4 = call float @expf(float noundef %3) #11
  ret float %4
}

; Function Attrs: mustprogress uwtable
define hidden void @_ZN2cv16RobertsonWeightsEv(ptr dead_on_unwind noalias writable sret(%"class.cv::Mat") align 8 %0) #0 personality ptr @__gxx_personality_v0 {
  %2 = alloca ptr, align 8
  %3 = alloca i1, align 1
  %4 = alloca float, align 4
  %5 = alloca float, align 4
  %6 = alloca ptr, align 8
  %7 = alloca i32, align 4
  %8 = alloca float, align 4
  %9 = alloca float, align 4
  %10 = alloca i32, align 4
  %11 = alloca float, align 4
  %12 = alloca %"class.cv::Vec", align 4
  store ptr %0, ptr %2, align 8
  store i1 false, ptr %3, align 1
  call void @_ZN2cv3MatC1Eiii(ptr noundef nonnull align 8 dereferenceable(96) %0, i32 noundef 256, i32 noundef 1, i32 noundef 21)
  store float 6.375000e+01, ptr %4, align 4
  %13 = invoke noundef float @_ZSt3expf(float noundef 4.000000e+00)
          to label %14 unwind label %48

14:                                               ; preds = %1
  store float %13, ptr %5, align 4
  %15 = load float, ptr %5, align 4
  %16 = load float, ptr %5, align 4
  %17 = fsub float %16, 1.000000e+00
  %18 = fdiv float %15, %17
  store float %18, ptr %8, align 4
  %19 = load float, ptr %5, align 4
  %20 = fsub float 1.000000e+00, %19
  %21 = fdiv float 1.000000e+00, %20
  store float %21, ptr %9, align 4
  store i32 0, ptr %10, align 4
  br label %22

22:                                               ; preds = %45, %14
  %23 = load i32, ptr %10, align 4
  %24 = icmp slt i32 %23, 256
  br i1 %24, label %25, label %52

25:                                               ; preds = %22
  %26 = load i32, ptr %10, align 4
  %27 = sitofp i32 %26 to float
  %28 = load float, ptr %4, align 4
  %29 = fdiv float %27, %28
  %30 = fsub float %29, 2.000000e+00
  store float %30, ptr %11, align 4
  %31 = load float, ptr %8, align 4
  %32 = load float, ptr %11, align 4
  %33 = fneg float %32
  %34 = load float, ptr %11, align 4
  %35 = fmul float %33, %34
  %36 = invoke noundef float @_ZSt3expf(float noundef %35)
          to label %37 unwind label %48

37:                                               ; preds = %25
  %38 = load float, ptr %9, align 4
  %39 = call float @llvm.fmuladd.f32(float %31, float %36, float %38)
  store float %39, ptr %11, align 4
  %40 = load float, ptr %11, align 4
  invoke void @_ZN2cv3VecIfLi3EE3allEf(ptr dead_on_unwind writable sret(%"class.cv::Vec") align 4 %12, float noundef %40)
          to label %41 unwind label %48

41:                                               ; preds = %37
  %42 = load i32, ptr %10, align 4
  %43 = invoke noundef nonnull align 4 dereferenceable(12) ptr @_ZN2cv3Mat2atINS_3VecIfLi3EEEEERT_i(ptr noundef nonnull align 8 dereferenceable(96) %0, i32 noundef %42)
          to label %44 unwind label %48

44:                                               ; preds = %41
  call void @llvm.memcpy.p0.p0.i64(ptr align 4 %43, ptr align 4 %12, i64 12, i1 false)
  br label %45

45:                                               ; preds = %44
  %46 = load i32, ptr %10, align 4
  %47 = add nsw i32 %46, 1
  store i32 %47, ptr %10, align 4
  br label %22, !llvm.loop !7

48:                                               ; preds = %41, %37, %25, %1
  %49 = landingpad { ptr, i32 }
          cleanup
  %50 = extractvalue { ptr, i32 } %49, 0
  store ptr %50, ptr %6, align 8
  %51 = extractvalue { ptr, i32 } %49, 1
  store i32 %51, ptr %7, align 4
  call void @_ZN2cv3MatD1Ev(ptr noundef nonnull align 8 dereferenceable(96) %0) #11
  br label %56

52:                                               ; preds = %22
  store i1 true, ptr %3, align 1
  %53 = load i1, ptr %3, align 1
  br i1 %53, label %55, label %54

54:                                               ; preds = %52
  call void @_ZN2cv3MatD1Ev(ptr noundef nonnull align 8 dereferenceable(96) %0) #11
  br label %55

55:                                               ; preds = %54, %52
  ret void

56:                                               ; preds = %48
  %57 = load ptr, ptr %6, align 8
  %58 = load i32, ptr %7, align 4
  %59 = insertvalue { ptr, i32 } poison, ptr %57, 0
  %60 = insertvalue { ptr, i32 } %59, i32 %58, 1
  resume { ptr, i32 } %60
}