; Function Attrs: mustprogress uwtable
define hidden void @_ZN2cv16RobertsonWeightsEv(ptr dead_on_unwind noalias nonnull writable sret(%"class.cv::Mat") align 8 %0) local_unnamed_addr #0 personality ptr @__gxx_personality_v0 {
  %2 = alloca %"class.cv::Vec", align 4
  tail call void @_ZN2cv3MatC1Eiii(ptr noundef nonnull align 8 dereferenceable(96) %0, i32 noundef 256, i32 noundef 1, i32 noundef 21)
  %3 = getelementptr inbounds i8, ptr %0, i64 64
  %4 = getelementptr inbounds i8, ptr %0, i64 12
  %5 = getelementptr inbounds i8, ptr %0, i64 16
  %6 = getelementptr inbounds i8, ptr %0, i64 72
  br label %7

7:                                                ; preds = %1, %_ZN2cv3Mat2atINS_3VecIfLi3EEEEERT_i.exit
  %indvars.iv = phi i64 [ 0, %1 ], [ %indvars.iv.next, %_ZN2cv3Mat2atINS_3VecIfLi3EEEEERT_i.exit ]
  %8 = trunc nuw nsw i64 %indvars.iv to i32
  %9 = uitofp nneg i32 %8 to float
  %10 = fdiv float %9, 6.375000e+01
  %11 = fadd float %10, -2.000000e+00
  %12 = fneg float %11
  %13 = fmul float %11, %12
  %14 = tail call noundef float @expf(float noundef %13) #12
  %15 = tail call float @llvm.fmuladd.f32(float %14, float 0x3FF04C6BA0000000, float 0xBF931AEA40000000)
  call void @llvm.memset.p0.i64(ptr noundef nonnull align 4 dereferenceable(12) %2, i8 0, i64 12, i1 false), !alias.scope !7
  br label %16

16:                                               ; preds = %16, %7
  %indvars.iv.i = phi i64 [ 0, %7 ], [ %indvars.iv.next.i, %16 ]
  %17 = getelementptr inbounds [3 x float], ptr %2, i64 0, i64 %indvars.iv.i
  store float %15, ptr %17, align 4, !alias.scope !7
  %indvars.iv.next.i = add nuw nsw i64 %indvars.iv.i, 1
  %exitcond.not.i = icmp eq i64 %indvars.iv.next.i, 3
  br i1 %exitcond.not.i, label %_ZN2cv3VecIfLi3EE3allEf.exit, label %16, !llvm.loop !10

_ZN2cv3VecIfLi3EE3allEf.exit:                     ; preds = %16
  %18 = load i32, ptr %0, align 8
  %19 = and i32 %18, 16384
  %.not.i = icmp eq i32 %19, 0
  br i1 %.not.i, label %20, label %24

20:                                               ; preds = %_ZN2cv3VecIfLi3EE3allEf.exit
  %21 = load ptr, ptr %3, align 8
  %22 = load i32, ptr %21, align 4
  %23 = icmp eq i32 %22, 1
  br i1 %23, label %24, label %27

24:                                               ; preds = %20, %_ZN2cv3VecIfLi3EE3allEf.exit
  %25 = load ptr, ptr %5, align 8
  %26 = getelementptr inbounds %"class.cv::Vec", ptr %25, i64 %indvars.iv
  br label %_ZN2cv3Mat2atINS_3VecIfLi3EEEEERT_i.exit

27:                                               ; preds = %20
  %28 = getelementptr inbounds i8, ptr %21, i64 4
  %29 = load i32, ptr %28, align 4
  %30 = icmp eq i32 %29, 1
  br i1 %30, label %31, label %37

31:                                               ; preds = %27
  %32 = load ptr, ptr %5, align 8
  %33 = load ptr, ptr %6, align 8
  %34 = load i64, ptr %33, align 8
  %35 = mul i64 %34, %indvars.iv
  %36 = getelementptr inbounds i8, ptr %32, i64 %35
  br label %_ZN2cv3Mat2atINS_3VecIfLi3EEEEERT_i.exit

37:                                               ; preds = %27
  %38 = load i32, ptr %4, align 4
  %39 = sdiv i32 %8, %38
  %40 = mul nsw i32 %39, %38
  %.recomposed = srem i32 %8, %38
  %41 = load ptr, ptr %5, align 8
  %42 = load ptr, ptr %6, align 8
  %43 = load i64, ptr %42, align 8
  %44 = sext i32 %39 to i64
  %45 = mul i64 %43, %44
  %46 = getelementptr inbounds i8, ptr %41, i64 %45
  %47 = sext i32 %.recomposed to i64
  %48 = getelementptr inbounds %"class.cv::Vec", ptr %46, i64 %47
  br label %_ZN2cv3Mat2atINS_3VecIfLi3EEEEERT_i.exit

_ZN2cv3Mat2atINS_3VecIfLi3EEEEERT_i.exit:         ; preds = %24, %31, %37
  %.0.i = phi ptr [ %26, %24 ], [ %36, %31 ], [ %48, %37 ]
  call void @llvm.memcpy.p0.p0.i64(ptr noundef nonnull align 4 dereferenceable(12) %.0.i, ptr noundef nonnull align 4 dereferenceable(12) %2, i64 12, i1 false)
  %indvars.iv.next = add nuw nsw i64 %indvars.iv, 1
  %exitcond.not = icmp eq i64 %indvars.iv.next, 256
  br i1 %exitcond.not, label %49, label %7, !llvm.loop !11

49:                                               ; preds = %_ZN2cv3Mat2atINS_3VecIfLi3EEEEERT_i.exit
  ret void
}